; Function Attrs: mustprogress nofree nounwind willreturn memory(read, inaccessiblemem: none) uwtable
define internal fastcc zeroext i1 @_equalDropSubscriptionStmt(ptr noundef nonnull readonly captures(none) %0, ptr noundef nonnull readonly captures(none) %1) unnamed_addr #3 {
  %3 = getelementptr inbounds nuw i8, ptr %0, i64 8
  %4 = load ptr, ptr %3, align 8
  %.not = icmp eq ptr %4, null
  %.phi.trans.insert = getelementptr inbounds nuw i8, ptr %1, i64 8
  %.pre = load ptr, ptr %.phi.trans.insert, align 8
  br i1 %.not, label %9, label %5

5:                                                ; preds = %2
  %.not13 = icmp eq ptr %.pre, null
  br i1 %.not13, label %.thread, label %6

6:                                                ; preds = %5
  %7 = tail call i32 @strcmp(ptr noundef nonnull dereferenceable(1) %4, ptr noundef nonnull dereferenceable(1) %.pre) #11
  %8 = icmp eq i32 %7, 0
  br i1 %8, label %11, label %.thread

9:                                                ; preds = %2
  %10 = icmp eq ptr %4, %.pre
  br i1 %10, label %11, label %.thread

11:                                               ; preds = %9, %6
  %12 = getelementptr inbounds nuw i8, ptr %0, i64 16
  %13 = load i8, ptr %12, align 8, !range !4, !noundef !5
  %14 = getelementptr inbounds nuw i8, ptr %1, i64 16
  %15 = load i8, ptr %14, align 8, !range !4, !noundef !5
  %.not14 = icmp eq i8 %13, %15
  br i1 %.not14, label %16, label %.thread

16:                                               ; preds = %11
  %17 = getelementptr inbounds nuw i8, ptr %0, i64 20
  %18 = load i32, ptr %17, align 4
  %19 = getelementptr inbounds nuw i8, ptr %1, i64 20
  %20 = load i32, ptr %19, align 4
  %.not15 = icmp eq i32 %18, %20
  br label %.thread

.thread:                                          ; preds = %5, %16, %11, %6, %9
  %.0 = phi i1 [ false, %9 ], [ false, %6 ], [ false, %11 ], [ %.not15, %16 ], [ false, %5 ]
  ret i1 %.0
}